; Function Attrs: inlinehint mustprogress nounwind uwtable
define internal fastcc void @_ZNSt4pairIN5Yosys7hashlib4poolIPN12_GLOBAL__N_19GraphNodeENS1_8hash_opsIS5_EEEES8_ED2Ev(ptr noundef nonnull readonly align 8 captures(none) dereferenceable(112) %0) unnamed_addr #4 align 2 personality ptr @__gxx_personality_v0 {
  %2 = getelementptr inbounds nuw i8, ptr %0, i64 56
  %3 = getelementptr inbounds nuw i8, ptr %0, i64 80
  %.val.i = load ptr, ptr %3, align 8
  %.not.i.i.i.i = icmp eq ptr %.val.i, null
  br i1 %.not.i.i.i.i, label %_ZNSt6vectorIN5Yosys7hashlib4poolIPN12_GLOBAL__N_19GraphNodeENS1_8hash_opsIS5_EEE7entry_tESaIS9_EED2Ev.exit.i, label %4

4:                                                ; preds = %1
  %5 = getelementptr inbounds nuw i8, ptr %0, i64 96
  %.val1.i = load ptr, ptr %5, align 8
  %6 = ptrtoint ptr %.val1.i to i64
  %7 = ptrtoint ptr %.val.i to i64
  %8 = sub i64 %6, %7
  tail call void @_ZdlPvm(ptr noundef nonnull %.val.i, i64 noundef %8) #33
  br label %_ZNSt6vectorIN5Yosys7hashlib4poolIPN12_GLOBAL__N_19GraphNodeENS1_8hash_opsIS5_EEE7entry_tESaIS9_EED2Ev.exit.i

_ZNSt6vectorIN5Yosys7hashlib4poolIPN12_GLOBAL__N_19GraphNodeENS1_8hash_opsIS5_EEE7entry_tESaIS9_EED2Ev.exit.i: ; preds = %4, %1
  %9 = load ptr, ptr %2, align 8, !tbaa !64
  %.not.i.i.i2.i = icmp eq ptr %9, null
  br i1 %.not.i.i.i2.i, label %_ZN5Yosys7hashlib4poolIPN12_GLOBAL__N_19GraphNodeENS0_8hash_opsIS4_EEED2Ev.exit, label %10

10:                                               ; preds = %_ZNSt6vectorIN5Yosys7hashlib4poolIPN12_GLOBAL__N_19GraphNodeENS1_8hash_opsIS5_EEE7entry_tESaIS9_EED2Ev.exit.i
  %11 = getelementptr inbounds nuw i8, ptr %0, i64 72
  %12 = load ptr, ptr %11, align 8, !tbaa !66
  %13 = ptrtoint ptr %12 to i64
  %14 = ptrtoint ptr %9 to i64
  %15 = sub i64 %13, %14
  tail call void @_ZdlPvm(ptr noundef nonnull %9, i64 noundef %15) #33
  br label %_ZN5Yosys7hashlib4poolIPN12_GLOBAL__N_19GraphNodeENS0_8hash_opsIS4_EEED2Ev.exit

_ZN5Yosys7hashlib4poolIPN12_GLOBAL__N_19GraphNodeENS0_8hash_opsIS4_EEED2Ev.exit: ; preds = %_ZNSt6vectorIN5Yosys7hashlib4poolIPN12_GLOBAL__N_19GraphNodeENS1_8hash_opsIS5_EEE7entry_tESaIS9_EED2Ev.exit.i, %10
  %16 = getelementptr inbounds nuw i8, ptr %0, i64 24
  %.val.i1 = load ptr, ptr %16, align 8
  %.not.i.i.i.i2 = icmp eq ptr %.val.i1, null
  br i1 %.not.i.i.i.i2, label %_ZNSt6vectorIN5Yosys7hashlib4poolIPN12_GLOBAL__N_19GraphNodeENS1_8hash_opsIS5_EEE7entry_tESaIS9_EED2Ev.exit.i4, label %17

17:                                               ; preds = %_ZN5Yosys7hashlib4poolIPN12_GLOBAL__N_19GraphNodeENS0_8hash_opsIS4_EEED2Ev.exit
  %18 = getelementptr inbounds nuw i8, ptr %0, i64 40
  %.val1.i3 = load ptr, ptr %18, align 8
  %19 = ptrtoint ptr %.val1.i3 to i64
  %20 = ptrtoint ptr %.val.i1 to i64
  %21 = sub i64 %19, %20
  tail call void @_ZdlPvm(ptr noundef nonnull %.val.i1, i64 noundef %21) #33
  br label %_ZNSt6vectorIN5Yosys7hashlib4poolIPN12_GLOBAL__N_19GraphNodeENS1_8hash_opsIS5_EEE7entry_tESaIS9_EED2Ev.exit.i4

_ZNSt6vectorIN5Yosys7hashlib4poolIPN12_GLOBAL__N_19GraphNodeENS1_8hash_opsIS5_EEE7entry_tESaIS9_EED2Ev.exit.i4: ; preds = %17, %_ZN5Yosys7hashlib4poolIPN12_GLOBAL__N_19GraphNodeENS0_8hash_opsIS4_EEED2Ev.exit
  %22 = load ptr, ptr %0, align 8, !tbaa !64
  %.not.i.i.i2.i5 = icmp eq ptr %22, null
  br i1 %.not.i.i.i2.i5, label %_ZN5Yosys7hashlib4poolIPN12_GLOBAL__N_19GraphNodeENS0_8hash_opsIS4_EEED2Ev.exit6, label %23

23:                                               ; preds = %_ZNSt6vectorIN5Yosys7hashlib4poolIPN12_GLOBAL__N_19GraphNodeENS1_8hash_opsIS5_EEE7entry_tESaIS9_EED2Ev.exit.i4
  %24 = getelementptr inbounds nuw i8, ptr %0, i64 16
  %25 = load ptr, ptr %24, align 8, !tbaa !66
  %26 = ptrtoint ptr %25 to i64
  %27 = ptrtoint ptr %22 to i64
  %28 = sub i64 %26, %27
  tail call void @_ZdlPvm(ptr noundef nonnull %22, i64 noundef %28) #33
  br label %_ZN5Yosys7hashlib4poolIPN12_GLOBAL__N_19GraphNodeENS0_8hash_opsIS4_EEED2Ev.exit6

_ZN5Yosys7hashlib4poolIPN12_GLOBAL__N_19GraphNodeENS0_8hash_opsIS4_EEED2Ev.exit6: ; preds = %_ZNSt6vectorIN5Yosys7hashlib4poolIPN12_GLOBAL__N_19GraphNodeENS1_8hash_opsIS5_EEE7entry_tESaIS9_EED2Ev.exit.i4, %23
  ret void
}